; Function Attrs: mustprogress nofree norecurse nosync nounwind willreturn memory(write, argmem: readwrite, inaccessiblemem: none) uwtable
define hidden noundef signext i8 @nfaExecLbrTruf_queueInitState(ptr noundef readonly captures(none) %0, ptr noundef readonly captures(none) %1) local_unnamed_addr #2 {
  %3 = getelementptr inbounds nuw i8, ptr %0, i64 64
  %4 = load i32, ptr %3, align 4
  %5 = zext i32 %4 to i64
  %6 = getelementptr inbounds nuw i8, ptr %3, i64 %5
  %7 = getelementptr inbounds nuw i8, ptr %1, i64 16
  %8 = load ptr, ptr %7, align 8
  store i64 0, ptr %8, align 8
  %9 = load i8, ptr %6, align 4
  %switch = icmp ult i8 %9, 7
  br i1 %switch, label %clearRepeat.exit.sink.split, label %clearRepeat.exit

clearRepeat.exit.sink.split:                      ; preds = %2
  %10 = getelementptr inbounds nuw i8, ptr %8, i64 8
  store i64 -1, ptr %10, align 8
  br label %clearRepeat.exit

clearRepeat.exit:                                 ; preds = %2, %clearRepeat.exit.sink.split
  ret i8 0
}